target datalayout = "e-m:e-p270:32:32-p271:32:32-p272:64:64-i64:64-i128:128-f80:128-n8:16:32:64-S128"
target triple = "x86_64-pc-linux-gnu"

%"class.Luau::AstStat.base" = type { %"class.Luau::AstNode.base", i8 }
%"class.Luau::AstNode.base" = type <{ ptr, i32, %"struct.Luau::Location" }>
%"struct.Luau::Location" = type { %"struct.Luau::Position", %"struct.Luau::Position" }
%"struct.Luau::Position" = type { i32, i32 }
%"struct.Luau::AstName" = type { ptr }
%"struct.Luau::AstArray.284" = type { ptr, i64 }
%"struct.Luau::AstArray.285" = type { ptr, i64 }
%"class.Luau::AstStatTypeAlias" = type <{ %"class.Luau::AstStat.base", [3 x i8], %"struct.Luau::AstName", %"struct.Luau::Location", %"struct.Luau::AstArray.284", %"struct.Luau::AstArray.285", ptr, i8, [7 x i8] }>

; Function Attrs: mustprogress uwtable
define dso_local void @_ZN4Luau12TypeChecker25visitEPNS_16AstStatTypeAliasE(ptr noundef nonnull align 8 dereferenceable(784) %0, ptr noundef %1) #7 align 2 {
  %3 = alloca ptr, align 8
  %4 = alloca ptr, align 8
  %5 = alloca %"struct.Luau::AstArray.284", align 8
  %6 = alloca %"struct.Luau::AstArray.285", align 8
  store ptr %0, ptr %3, align 8, !tbaa !131
  store ptr %1, ptr %4, align 8, !tbaa !624
  %7 = load ptr, ptr %3, align 8
  %8 = load ptr, ptr %4, align 8, !tbaa !624
  %9 = getelementptr inbounds nuw %"class.Luau::AstStatTypeAlias", ptr %8, i32 0, i32 4
  call void @llvm.memcpy.p0.p0.i64(ptr align 8 %5, ptr align 8 %9, i64 16, i1 false), !tbaa.struct !739
  %10 = load ptr, ptr %4, align 8, !tbaa !624
  %11 = getelementptr inbounds nuw %"class.Luau::AstStatTypeAlias", ptr %10, i32 0, i32 5
  call void @llvm.memcpy.p0.p0.i64(ptr align 8 %6, ptr align 8 %11, i64 16, i1 false), !tbaa.struct !742
  %12 = getelementptr inbounds nuw { ptr, i64 }, ptr %5, i32 0, i32 0
  %13 = load ptr, ptr %12, align 8
  %14 = getelementptr inbounds nuw { ptr, i64 }, ptr %5, i32 0, i32 1
  %15 = load i64, ptr %14, align 8
  %16 = getelementptr inbounds nuw { ptr, i64 }, ptr %6, i32 0, i32 0
  %17 = load ptr, ptr %16, align 8
  %18 = getelementptr inbounds nuw { ptr, i64 }, ptr %6, i32 0, i32 1
  %19 = load i64, ptr %18, align 8
  call void @_ZN4Luau12TypeChecker213visitGenericsENS_8AstArrayIPNS_14AstGenericTypeEEENS1_IPNS_18AstGenericTypePackEEE(ptr noundef nonnull align 8 dereferenceable(784) %7, ptr %13, i64 %15, ptr %17, i64 %19)
  %20 = load ptr, ptr %4, align 8, !tbaa !624
  %21 = getelementptr inbounds nuw %"class.Luau::AstStatTypeAlias", ptr %20, i32 0, i32 6
  %22 = load ptr, ptr %21, align 8, !tbaa !745
  call void @_ZN4Luau12TypeChecker25visitEPNS_7AstTypeE(ptr noundef nonnull align 8 dereferenceable(784) %7, ptr noundef %22)
  ret void
}