; Function Attrs: mustprogress uwtable
define dso_local void @_ZN4Luau12TypeChecker25visitEPNS_16AstStatTypeAliasE(ptr noundef nonnull align 8 dereferenceable(784) %0, ptr noundef readonly captures(none) %1) local_unnamed_addr #5 align 2 {
  %3 = getelementptr inbounds nuw i8, ptr %1, i64 56
  %.sroa.01.0.copyload = load ptr, ptr %3, align 8, !tbaa !593
  %.sroa.22.0..sroa_idx = getelementptr inbounds nuw i8, ptr %1, i64 64
  %.sroa.22.0.copyload = load i64, ptr %.sroa.22.0..sroa_idx, align 8, !tbaa !225
  %4 = getelementptr inbounds nuw i8, ptr %1, i64 72
  %.sroa.0.0.copyload = load ptr, ptr %4, align 8, !tbaa !595
  %.sroa.2.0..sroa_idx = getelementptr inbounds nuw i8, ptr %1, i64 80
  %.sroa.2.0.copyload = load i64, ptr %.sroa.2.0..sroa_idx, align 8, !tbaa !225
  tail call void @_ZN4Luau12TypeChecker213visitGenericsENS_8AstArrayIPNS_14AstGenericTypeEEENS1_IPNS_18AstGenericTypePackEEE(ptr noundef nonnull align 8 dereferenceable(784) %0, ptr %.sroa.01.0.copyload, i64 %.sroa.22.0.copyload, ptr %.sroa.0.0.copyload, i64 %.sroa.2.0.copyload)
  %5 = getelementptr inbounds nuw i8, ptr %1, i64 88
  %6 = load ptr, ptr %5, align 8, !tbaa !597
  tail call void @_ZN4Luau12TypeChecker25visitEPNS_7AstTypeE(ptr noundef nonnull align 8 dereferenceable(784) %0, ptr noundef %6)
  ret void
}